target datalayout = "e-m:e-p270:32:32-p271:32:32-p272:64:64-i64:64-i128:128-f80:128-n8:16:32:64-S128"
target triple = "x86_64-pc-linux-gnu"

%struct.bf_context_t = type { ptr, ptr, %struct.BFConstCache, %struct.BFConstCache, ptr }
%struct.BFConstCache = type { %struct.bf_t, i64 }
%struct.bf_t = type { ptr, i32, i64, i64, ptr }

; Function Attrs: inlinehint nounwind uwtable
define internal ptr @bf_realloc(ptr noundef %0, ptr noundef %1, i64 noundef %2) #3 {
  %4 = alloca ptr, align 8
  %5 = alloca ptr, align 8
  %6 = alloca i64, align 8
  store ptr %0, ptr %4, align 8, !tbaa !7
  store ptr %1, ptr %5, align 8, !tbaa !12
  store i64 %2, ptr %6, align 8, !tbaa !27
  %7 = load ptr, ptr %4, align 8, !tbaa !7
  %8 = getelementptr inbounds nuw %struct.bf_context_t, ptr %7, i32 0, i32 1
  %9 = load ptr, ptr %8, align 8, !tbaa !13
  %10 = load ptr, ptr %4, align 8, !tbaa !7
  %11 = getelementptr inbounds nuw %struct.bf_context_t, ptr %10, i32 0, i32 0
  %12 = load ptr, ptr %11, align 8, !tbaa !21
  %13 = load ptr, ptr %5, align 8, !tbaa !12
  %14 = load i64, ptr %6, align 8, !tbaa !27
  %15 = call ptr %9(ptr noundef %12, ptr noundef %13, i64 noundef %14)
  ret ptr %15
}

; Function Attrs: inlinehint nounwind uwtable
define internal void @bf_free(ptr noundef %0, ptr noundef %1) #3 {
  %3 = alloca ptr, align 8
  %4 = alloca ptr, align 8
  store ptr %0, ptr %3, align 8, !tbaa !7
  store ptr %1, ptr %4, align 8, !tbaa !12
  %5 = load ptr, ptr %4, align 8, !tbaa !12
  %6 = icmp ne ptr %5, null
  br i1 %6, label %7, label %11

7:                                                ; preds = %2
  %8 = load ptr, ptr %3, align 8, !tbaa !7
  %9 = load ptr, ptr %4, align 8, !tbaa !12
  %10 = call ptr @bf_realloc(ptr noundef %8, ptr noundef %9, i64 noundef 0)
  br label %11

11:                                               ; preds = %7, %2
  ret void
}

; Function Attrs: inlinehint nounwind uwtable
define internal ptr @bf_malloc(ptr noundef %0, i64 noundef %1) #3 {
  %3 = alloca ptr, align 8
  %4 = alloca i64, align 8
  store ptr %0, ptr %3, align 8, !tbaa !7
  store i64 %1, ptr %4, align 8, !tbaa !27
  %5 = load ptr, ptr %3, align 8, !tbaa !7
  %6 = load i64, ptr %4, align 8, !tbaa !27
  %7 = call ptr @bf_realloc(ptr noundef %5, ptr noundef null, i64 noundef %6)
  ret ptr %7
}

; Function Attrs: nounwind uwtable
define dso_local i32 @mp_sqrtrem_dec(ptr noundef %0, ptr noundef %1, ptr noundef %2, i64 noundef %3) #0 {
  %5 = alloca i32, align 4
  %6 = alloca ptr, align 8
  %7 = alloca ptr, align 8
  %8 = alloca ptr, align 8
  %9 = alloca i64, align 8
  %10 = alloca [8 x i64], align 16
  %11 = alloca ptr, align 8
  %12 = alloca i64, align 8
  %13 = alloca i32, align 4
  store ptr %0, ptr %6, align 8, !tbaa !7
  store ptr %1, ptr %7, align 8, !tbaa !28
  store ptr %2, ptr %8, align 8, !tbaa !28
  store i64 %3, ptr %9, align 8, !tbaa !27
  call void @llvm.lifetime.start.p0(i64 64, ptr %10) #10
  call void @llvm.lifetime.start.p0(i64 8, ptr %11) #10
  call void @llvm.lifetime.start.p0(i64 8, ptr %12) #10
  %14 = load i64, ptr %9, align 8, !tbaa !27
  %15 = udiv i64 %14, 2
  %16 = add i64 %15, 1
  store i64 %16, ptr %12, align 8, !tbaa !27
  %17 = load i64, ptr %12, align 8, !tbaa !27
  %18 = icmp ule i64 %17, 8
  br i1 %18, label %19, label %21

19:                                               ; preds = %4
  %20 = getelementptr inbounds [8 x i64], ptr %10, i64 0, i64 0
  store ptr %20, ptr %11, align 8, !tbaa !28
  br label %30

21:                                               ; preds = %4
  %22 = load ptr, ptr %6, align 8, !tbaa !7
  %23 = load i64, ptr %12, align 8, !tbaa !27
  %24 = mul i64 8, %23
  %25 = call ptr @bf_malloc(ptr noundef %22, i64 noundef %24)
  store ptr %25, ptr %11, align 8, !tbaa !28
  %26 = load ptr, ptr %11, align 8, !tbaa !28
  %27 = icmp ne ptr %26, null
  br i1 %27, label %29, label %28

28:                                               ; preds = %21
  store i32 -1, ptr %5, align 4
  store i32 1, ptr %13, align 4
  br label %46

29:                                               ; preds = %21
  br label %30

30:                                               ; preds = %29, %19
  %31 = load ptr, ptr %7, align 8, !tbaa !28
  %32 = load ptr, ptr %8, align 8, !tbaa !28
  %33 = load i64, ptr %9, align 8, !tbaa !27
  %34 = load ptr, ptr %11, align 8, !tbaa !28
  %35 = call i64 @mp_sqrtrem_rec_dec(ptr noundef %31, ptr noundef %32, i64 noundef %33, ptr noundef %34)
  %36 = load ptr, ptr %8, align 8, !tbaa !28
  %37 = load i64, ptr %9, align 8, !tbaa !27
  %38 = getelementptr inbounds nuw i64, ptr %36, i64 %37
  store i64 %35, ptr %38, align 8, !tbaa !27
  %39 = load ptr, ptr %11, align 8, !tbaa !28
  %40 = getelementptr inbounds [8 x i64], ptr %10, i64 0, i64 0
  %41 = icmp ne ptr %39, %40
  br i1 %41, label %42, label %45

42:                                               ; preds = %30
  %43 = load ptr, ptr %6, align 8, !tbaa !7
  %44 = load ptr, ptr %11, align 8, !tbaa !28
  call void @bf_free(ptr noundef %43, ptr noundef %44)
  br label %45

45:                                               ; preds = %42, %30
  store i32 0, ptr %5, align 4
  store i32 1, ptr %13, align 4
  br label %46

46:                                               ; preds = %45, %28
  call void @llvm.lifetime.end.p0(i64 8, ptr %12) #10
  call void @llvm.lifetime.end.p0(i64 8, ptr %11) #10
  call void @llvm.lifetime.end.p0(i64 64, ptr %10) #10
  %47 = load i32, ptr %5, align 4
  ret i32 %47
}