; Function Attrs: nounwind uwtable
define dso_local range(i32 -1, 1) i32 @mp_sqrtrem_dec(ptr noundef readonly captures(none) %0, ptr noundef %1, ptr noundef captures(none) %2, i64 noundef %3) local_unnamed_addr #2 {
  %5 = alloca [8 x i64], align 16
  call void @llvm.lifetime.start.p0(i64 64, ptr nonnull %5) #21
  %6 = icmp ult i64 %3, 16
  br i1 %6, label %.thread, label %9

.thread:                                          ; preds = %4
  %7 = call fastcc i64 @mp_sqrtrem_rec_dec(ptr noundef %1, ptr noundef %2, i64 noundef %3, ptr noundef %5)
  %8 = getelementptr inbounds nuw i64, ptr %2, i64 %3
  store i64 %7, ptr %8, align 8, !tbaa !33
  br label %19

9:                                                ; preds = %4
  %10 = shl i64 %3, 2
  %11 = and i64 %10, -8
  %12 = add i64 %11, 8
  %.val = load ptr, ptr %0, align 8, !tbaa !19
  %13 = getelementptr i8, ptr %0, i64 8
  %.val18 = load ptr, ptr %13, align 8, !tbaa !7
  %14 = tail call ptr %.val18(ptr noundef %.val, ptr noundef null, i64 noundef %12) #21
  %.not = icmp eq ptr %14, null
  br i1 %.not, label %19, label %15

15:                                               ; preds = %9
  %16 = tail call fastcc i64 @mp_sqrtrem_rec_dec(ptr noundef %1, ptr noundef %2, i64 noundef %3, ptr noundef %14)
  %17 = getelementptr inbounds nuw i64, ptr %2, i64 %3
  store i64 %16, ptr %17, align 8, !tbaa !33
  %.val.i = load ptr, ptr %0, align 8, !tbaa !19
  %.val3.i = load ptr, ptr %13, align 8, !tbaa !7
  %18 = tail call ptr %.val3.i(ptr noundef %.val.i, ptr noundef nonnull %14, i64 noundef 0) #21
  br label %19

19:                                               ; preds = %.thread, %15, %9
  %.0 = phi i32 [ -1, %9 ], [ 0, %15 ], [ 0, %.thread ]
  call void @llvm.lifetime.end.p0(i64 64, ptr nonnull %5) #21
  ret i32 %.0
}